; Function Attrs: mustprogress nounwind willreturn uwtable
define noundef ptr @Amap_LibCreateObj(ptr noundef captures(none) %0) local_unnamed_addr #1 {
  %2 = getelementptr inbounds nuw i8, ptr %0, i64 96
  %3 = load i32, ptr %2, align 8, !tbaa !29
  %4 = getelementptr inbounds nuw i8, ptr %0, i64 100
  %5 = load i32, ptr %4, align 4, !tbaa !30
  %6 = icmp eq i32 %3, %5
  %7 = getelementptr i8, ptr %0, i64 88
  %8 = load ptr, ptr %7, align 8, !tbaa !31
  br i1 %6, label %9, label %._crit_edge

9:                                                ; preds = %1
  %.not = icmp eq ptr %8, null
  %10 = shl nsw i32 %3, 1
  %11 = sext i32 %10 to i64
  %12 = mul nsw i64 %11, 24
  br i1 %.not, label %15, label %13

13:                                               ; preds = %9
  %14 = tail call ptr @realloc(ptr noundef nonnull %8, i64 noundef %12) #10
  %.pre = load i32, ptr %4, align 4, !tbaa !30
  %.pre40.pre = load i32, ptr %2, align 8, !tbaa !29
  %.pre43 = shl nsw i32 %.pre, 1
  br label %17

15:                                               ; preds = %9
  %16 = tail call noalias ptr @malloc(i64 noundef %12) #11
  br label %17

17:                                               ; preds = %15, %13
  %.pre-phi = phi i32 [ %10, %15 ], [ %.pre43, %13 ]
  %.pre40 = phi i32 [ %3, %15 ], [ %.pre40.pre, %13 ]
  %18 = phi ptr [ %16, %15 ], [ %14, %13 ]
  store ptr %18, ptr %7, align 8, !tbaa !31
  store i32 %.pre-phi, ptr %4, align 4, !tbaa !30
  br label %._crit_edge

._crit_edge:                                      ; preds = %1, %17
  %.val = phi ptr [ %18, %17 ], [ %8, %1 ]
  %19 = phi i32 [ %.pre40, %17 ], [ %3, %1 ]
  %20 = sext i32 %19 to i64
  %21 = getelementptr inbounds %struct.Amap_Nod_t_, ptr %.val, i64 %20
  tail call void @llvm.memset.p0.i64(ptr noundef nonnull align 8 dereferenceable(24) %21, i8 0, i64 24, i1 false)
  %22 = load i32, ptr %2, align 8, !tbaa !29
  %23 = add nsw i32 %22, 1
  store i32 %23, ptr %2, align 8, !tbaa !29
  %24 = load i32, ptr %21, align 8
  %25 = and i32 %22, 65535
  %26 = and i32 %24, -65536
  %27 = or disjoint i32 %26, %25
  store i32 %27, ptr %21, align 8
  %28 = getelementptr inbounds nuw i8, ptr %0, i64 104
  %29 = load ptr, ptr %28, align 8, !tbaa !26
  %30 = tail call noalias dereferenceable_or_null(16) ptr @malloc(i64 noundef 16) #11
  %31 = getelementptr inbounds nuw i8, ptr %30, i64 4
  store i32 0, ptr %31, align 4, !tbaa !19
  store i32 16, ptr %30, align 8, !tbaa !32
  %32 = tail call noalias dereferenceable_or_null(64) ptr @malloc(i64 noundef 64) #11
  %33 = getelementptr inbounds nuw i8, ptr %30, i64 8
  store ptr %32, ptr %33, align 8, !tbaa !22
  %34 = getelementptr inbounds nuw i8, ptr %29, i64 4
  %35 = load i32, ptr %34, align 4, !tbaa !33
  %36 = load i32, ptr %29, align 8, !tbaa !34
  %37 = icmp eq i32 %35, %36
  br i1 %37, label %38, label %.Vec_PtrGrow.exit11_crit_edge.i

.Vec_PtrGrow.exit11_crit_edge.i:                  ; preds = %._crit_edge
  %.phi.trans.insert.i = getelementptr inbounds nuw i8, ptr %29, i64 8
  %.pre.i = load ptr, ptr %.phi.trans.insert.i, align 8, !tbaa !16
  br label %Vec_PtrPush.exit

38:                                               ; preds = %._crit_edge
  %39 = icmp slt i32 %35, 16
  br i1 %39, label %40, label %48

40:                                               ; preds = %38
  %41 = getelementptr inbounds nuw i8, ptr %29, i64 8
  %42 = load ptr, ptr %41, align 8, !tbaa !16
  %.not9.i.i = icmp eq ptr %42, null
  br i1 %.not9.i.i, label %45, label %43

43:                                               ; preds = %40
  %44 = tail call dereferenceable_or_null(128) ptr @realloc(ptr noundef nonnull %42, i64 noundef 128) #10
  br label %Vec_PtrGrow.exit.i

45:                                               ; preds = %40
  %46 = tail call noalias dereferenceable_or_null(128) ptr @malloc(i64 noundef 128) #11
  br label %Vec_PtrGrow.exit.i

Vec_PtrGrow.exit.i:                               ; preds = %45, %43
  %47 = phi ptr [ %44, %43 ], [ %46, %45 ]
  store ptr %47, ptr %41, align 8, !tbaa !16
  store i32 16, ptr %29, align 8, !tbaa !34
  br label %Vec_PtrPush.exit

48:                                               ; preds = %38
  %49 = shl nuw nsw i32 %35, 1
  %50 = getelementptr inbounds nuw i8, ptr %29, i64 8
  %51 = load ptr, ptr %50, align 8, !tbaa !16
  %.not9.i10.i = icmp eq ptr %51, null
  %52 = zext nneg i32 %49 to i64
  %53 = shl nuw nsw i64 %52, 3
  br i1 %.not9.i10.i, label %56, label %54

54:                                               ; preds = %48
  %55 = tail call ptr @realloc(ptr noundef nonnull %51, i64 noundef %53) #10
  br label %58

56:                                               ; preds = %48
  %57 = tail call noalias ptr @malloc(i64 noundef %53) #11
  br label %58

58:                                               ; preds = %56, %54
  %59 = phi ptr [ %55, %54 ], [ %57, %56 ]
  store ptr %59, ptr %50, align 8, !tbaa !16
  store i32 %49, ptr %29, align 8, !tbaa !34
  br label %Vec_PtrPush.exit

Vec_PtrPush.exit:                                 ; preds = %.Vec_PtrGrow.exit11_crit_edge.i, %Vec_PtrGrow.exit.i, %58
  %60 = phi ptr [ %.pre.i, %.Vec_PtrGrow.exit11_crit_edge.i ], [ %59, %58 ], [ %47, %Vec_PtrGrow.exit.i ]
  %61 = load i32, ptr %34, align 4, !tbaa !33
  %62 = add nsw i32 %61, 1
  store i32 %62, ptr %34, align 4, !tbaa !33
  %63 = sext i32 %61 to i64
  %64 = getelementptr inbounds ptr, ptr %60, i64 %63
  store ptr %30, ptr %64, align 8, !tbaa !18
  %65 = load ptr, ptr %28, align 8, !tbaa !26
  %66 = tail call noalias dereferenceable_or_null(16) ptr @malloc(i64 noundef 16) #11
  %67 = getelementptr inbounds nuw i8, ptr %66, i64 4
  store i32 0, ptr %67, align 4, !tbaa !19
  store i32 16, ptr %66, align 8, !tbaa !32
  %68 = tail call noalias dereferenceable_or_null(64) ptr @malloc(i64 noundef 64) #11
  %69 = getelementptr inbounds nuw i8, ptr %66, i64 8
  store ptr %68, ptr %69, align 8, !tbaa !22
  %70 = getelementptr inbounds nuw i8, ptr %65, i64 4
  %71 = load i32, ptr %70, align 4, !tbaa !33
  %72 = load i32, ptr %65, align 8, !tbaa !34
  %73 = icmp eq i32 %71, %72
  br i1 %73, label %74, label %.Vec_PtrGrow.exit11_crit_edge.i19

.Vec_PtrGrow.exit11_crit_edge.i19:                ; preds = %Vec_PtrPush.exit
  %.phi.trans.insert.i20 = getelementptr inbounds nuw i8, ptr %65, i64 8
  %.pre.i21 = load ptr, ptr %.phi.trans.insert.i20, align 8, !tbaa !16
  br label %Vec_PtrPush.exit25

74:                                               ; preds = %Vec_PtrPush.exit
  %75 = icmp slt i32 %71, 16
  br i1 %75, label %76, label %84

76:                                               ; preds = %74
  %77 = getelementptr inbounds nuw i8, ptr %65, i64 8
  %78 = load ptr, ptr %77, align 8, !tbaa !16
  %.not9.i.i23 = icmp eq ptr %78, null
  br i1 %.not9.i.i23, label %81, label %79

79:                                               ; preds = %76
  %80 = tail call dereferenceable_or_null(128) ptr @realloc(ptr noundef nonnull %78, i64 noundef 128) #10
  br label %Vec_PtrGrow.exit.i24

81:                                               ; preds = %76
  %82 = tail call noalias dereferenceable_or_null(128) ptr @malloc(i64 noundef 128) #11
  br label %Vec_PtrGrow.exit.i24

Vec_PtrGrow.exit.i24:                             ; preds = %81, %79
  %83 = phi ptr [ %80, %79 ], [ %82, %81 ]
  store ptr %83, ptr %77, align 8, !tbaa !16
  store i32 16, ptr %65, align 8, !tbaa !34
  br label %Vec_PtrPush.exit25

84:                                               ; preds = %74
  %85 = shl nuw nsw i32 %71, 1
  %86 = getelementptr inbounds nuw i8, ptr %65, i64 8
  %87 = load ptr, ptr %86, align 8, !tbaa !16
  %.not9.i10.i22 = icmp eq ptr %87, null
  %88 = zext nneg i32 %85 to i64
  %89 = shl nuw nsw i64 %88, 3
  br i1 %.not9.i10.i22, label %92, label %90

90:                                               ; preds = %84
  %91 = tail call ptr @realloc(ptr noundef nonnull %87, i64 noundef %89) #10
  br label %94

92:                                               ; preds = %84
  %93 = tail call noalias ptr @malloc(i64 noundef %89) #11
  br label %94

94:                                               ; preds = %92, %90
  %95 = phi ptr [ %91, %90 ], [ %93, %92 ]
  store ptr %95, ptr %86, align 8, !tbaa !16
  store i32 %85, ptr %65, align 8, !tbaa !34
  br label %Vec_PtrPush.exit25

Vec_PtrPush.exit25:                               ; preds = %.Vec_PtrGrow.exit11_crit_edge.i19, %Vec_PtrGrow.exit.i24, %94
  %96 = phi ptr [ %.pre.i21, %.Vec_PtrGrow.exit11_crit_edge.i19 ], [ %95, %94 ], [ %83, %Vec_PtrGrow.exit.i24 ]
  %97 = load i32, ptr %70, align 4, !tbaa !33
  %98 = add nsw i32 %97, 1
  store i32 %98, ptr %70, align 4, !tbaa !33
  %99 = sext i32 %97 to i64
  %100 = getelementptr inbounds ptr, ptr %96, i64 %99
  store ptr %66, ptr %100, align 8, !tbaa !18
  %101 = getelementptr inbounds nuw i8, ptr %0, i64 112
  %102 = load ptr, ptr %101, align 8, !tbaa !3
  %103 = tail call noalias dereferenceable_or_null(16) ptr @malloc(i64 noundef 16) #11
  %104 = getelementptr inbounds nuw i8, ptr %103, i64 4
  store i32 0, ptr %104, align 4, !tbaa !19
  store i32 16, ptr %103, align 8, !tbaa !32
  %105 = tail call noalias dereferenceable_or_null(64) ptr @malloc(i64 noundef 64) #11
  %106 = getelementptr inbounds nuw i8, ptr %103, i64 8
  store ptr %105, ptr %106, align 8, !tbaa !22
  %107 = getelementptr inbounds nuw i8, ptr %102, i64 4
  %108 = load i32, ptr %107, align 4, !tbaa !33
  %109 = load i32, ptr %102, align 8, !tbaa !34
  %110 = icmp eq i32 %108, %109
  br i1 %110, label %111, label %.Vec_PtrGrow.exit11_crit_edge.i26

.Vec_PtrGrow.exit11_crit_edge.i26:                ; preds = %Vec_PtrPush.exit25
  %.phi.trans.insert.i27 = getelementptr inbounds nuw i8, ptr %102, i64 8
  %.pre.i28 = load ptr, ptr %.phi.trans.insert.i27, align 8, !tbaa !16
  br label %Vec_PtrPush.exit32

111:                                              ; preds = %Vec_PtrPush.exit25
  %112 = icmp slt i32 %108, 16
  br i1 %112, label %113, label %121

113:                                              ; preds = %111
  %114 = getelementptr inbounds nuw i8, ptr %102, i64 8
  %115 = load ptr, ptr %114, align 8, !tbaa !16
  %.not9.i.i30 = icmp eq ptr %115, null
  br i1 %.not9.i.i30, label %118, label %116

116:                                              ; preds = %113
  %117 = tail call dereferenceable_or_null(128) ptr @realloc(ptr noundef nonnull %115, i64 noundef 128) #10
  br label %Vec_PtrGrow.exit.i31

118:                                              ; preds = %113
  %119 = tail call noalias dereferenceable_or_null(128) ptr @malloc(i64 noundef 128) #11
  br label %Vec_PtrGrow.exit.i31

Vec_PtrGrow.exit.i31:                             ; preds = %118, %116
  %120 = phi ptr [ %117, %116 ], [ %119, %118 ]
  store ptr %120, ptr %114, align 8, !tbaa !16
  store i32 16, ptr %102, align 8, !tbaa !34
  br label %Vec_PtrPush.exit32

121:                                              ; preds = %111
  %122 = shl nuw nsw i32 %108, 1
  %123 = getelementptr inbounds nuw i8, ptr %102, i64 8
  %124 = load ptr, ptr %123, align 8, !tbaa !16
  %.not9.i10.i29 = icmp eq ptr %124, null
  %125 = zext nneg i32 %122 to i64
  %126 = shl nuw nsw i64 %125, 3
  br i1 %.not9.i10.i29, label %129, label %127

127:                                              ; preds = %121
  %128 = tail call ptr @realloc(ptr noundef nonnull %124, i64 noundef %126) #10
  br label %131

129:                                              ; preds = %121
  %130 = tail call noalias ptr @malloc(i64 noundef %126) #11
  br label %131

131:                                              ; preds = %129, %127
  %132 = phi ptr [ %128, %127 ], [ %130, %129 ]
  store ptr %132, ptr %123, align 8, !tbaa !16
  store i32 %122, ptr %102, align 8, !tbaa !34
  br label %Vec_PtrPush.exit32

Vec_PtrPush.exit32:                               ; preds = %.Vec_PtrGrow.exit11_crit_edge.i26, %Vec_PtrGrow.exit.i31, %131
  %133 = phi ptr [ %.pre.i28, %.Vec_PtrGrow.exit11_crit_edge.i26 ], [ %132, %131 ], [ %120, %Vec_PtrGrow.exit.i31 ]
  %134 = load i32, ptr %107, align 4, !tbaa !33
  %135 = add nsw i32 %134, 1
  store i32 %135, ptr %107, align 4, !tbaa !33
  %136 = sext i32 %134 to i64
  %137 = getelementptr inbounds ptr, ptr %133, i64 %136
  store ptr %103, ptr %137, align 8, !tbaa !18
  %138 = load ptr, ptr %101, align 8, !tbaa !3
  %139 = tail call noalias dereferenceable_or_null(16) ptr @malloc(i64 noundef 16) #11
  %140 = getelementptr inbounds nuw i8, ptr %139, i64 4
  store i32 0, ptr %140, align 4, !tbaa !19
  store i32 16, ptr %139, align 8, !tbaa !32
  %141 = tail call noalias dereferenceable_or_null(64) ptr @malloc(i64 noundef 64) #11
  %142 = getelementptr inbounds nuw i8, ptr %139, i64 8
  store ptr %141, ptr %142, align 8, !tbaa !22
  %143 = getelementptr inbounds nuw i8, ptr %138, i64 4
  %144 = load i32, ptr %143, align 4, !tbaa !33
  %145 = load i32, ptr %138, align 8, !tbaa !34
  %146 = icmp eq i32 %144, %145
  br i1 %146, label %147, label %.Vec_PtrGrow.exit11_crit_edge.i33

.Vec_PtrGrow.exit11_crit_edge.i33:                ; preds = %Vec_PtrPush.exit32
  %.phi.trans.insert.i34 = getelementptr inbounds nuw i8, ptr %138, i64 8
  %.pre.i35 = load ptr, ptr %.phi.trans.insert.i34, align 8, !tbaa !16
  br label %Vec_PtrPush.exit39

147:                                              ; preds = %Vec_PtrPush.exit32
  %148 = icmp slt i32 %144, 16
  br i1 %148, label %149, label %157

149:                                              ; preds = %147
  %150 = getelementptr inbounds nuw i8, ptr %138, i64 8
  %151 = load ptr, ptr %150, align 8, !tbaa !16
  %.not9.i.i37 = icmp eq ptr %151, null
  br i1 %.not9.i.i37, label %154, label %152

152:                                              ; preds = %149
  %153 = tail call dereferenceable_or_null(128) ptr @realloc(ptr noundef nonnull %151, i64 noundef 128) #10
  br label %Vec_PtrGrow.exit.i38

154:                                              ; preds = %149
  %155 = tail call noalias dereferenceable_or_null(128) ptr @malloc(i64 noundef 128) #11
  br label %Vec_PtrGrow.exit.i38

Vec_PtrGrow.exit.i38:                             ; preds = %154, %152
  %156 = phi ptr [ %153, %152 ], [ %155, %154 ]
  store ptr %156, ptr %150, align 8, !tbaa !16
  store i32 16, ptr %138, align 8, !tbaa !34
  br label %Vec_PtrPush.exit39

157:                                              ; preds = %147
  %158 = shl nuw nsw i32 %144, 1
  %159 = getelementptr inbounds nuw i8, ptr %138, i64 8
  %160 = load ptr, ptr %159, align 8, !tbaa !16
  %.not9.i10.i36 = icmp eq ptr %160, null
  %161 = zext nneg i32 %158 to i64
  %162 = shl nuw nsw i64 %161, 3
  br i1 %.not9.i10.i36, label %165, label %163

163:                                              ; preds = %157
  %164 = tail call ptr @realloc(ptr noundef nonnull %160, i64 noundef %162) #10
  br label %167

165:                                              ; preds = %157
  %166 = tail call noalias ptr @malloc(i64 noundef %162) #11
  br label %167

167:                                              ; preds = %165, %163
  %168 = phi ptr [ %164, %163 ], [ %166, %165 ]
  store ptr %168, ptr %159, align 8, !tbaa !16
  store i32 %158, ptr %138, align 8, !tbaa !34
  br label %Vec_PtrPush.exit39

Vec_PtrPush.exit39:                               ; preds = %.Vec_PtrGrow.exit11_crit_edge.i33, %Vec_PtrGrow.exit.i38, %167
  %169 = phi ptr [ %.pre.i35, %.Vec_PtrGrow.exit11_crit_edge.i33 ], [ %168, %167 ], [ %156, %Vec_PtrGrow.exit.i38 ]
  %170 = load i32, ptr %143, align 4, !tbaa !33
  %171 = add nsw i32 %170, 1
  store i32 %171, ptr %143, align 4, !tbaa !33
  %172 = sext i32 %170 to i64
  %173 = getelementptr inbounds ptr, ptr %169, i64 %172
  store ptr %139, ptr %173, align 8, !tbaa !18
  ret ptr %21
}